target datalayout = "e-m:e-p270:32:32-p271:32:32-p272:64:64-i64:64-i128:128-f80:128-n8:16:32:64-S128"
target triple = "x86_64-pc-linux-gnu"

%"class.std::__cxx11::basic_string" = type { %"struct.std::__cxx11::basic_string<char>::_Alloc_hider", i64, %union.anon }
%"struct.std::__cxx11::basic_string<char>::_Alloc_hider" = type { ptr }
%union.anon = type { i64, [8 x i8] }
%struct._Save_errno.0 = type { i32 }

@.str.5 = private unnamed_addr constant [5 x i8] c"stod\00", align 1

; Function Attrs: mustprogress nounwind uwtable
define linkonce_odr noundef zeroext i1 @_ZZN9__gnu_cxx6__stoaIddcJEEET0_PFT_PKT1_PPS3_DpT2_EPKcS5_PmS9_EN10_Range_chk6_S_chkEdSt17integral_constantIbLb0EE(double noundef %0) #3 comdat align 2 {
  %2 = alloca double, align 8
  store double %0, ptr %2, align 8
  ret i1 false
}

; Function Attrs: mustprogress nounwind uwtable
define linkonce_odr void @_ZZN9__gnu_cxx6__stoaIddcJEEET0_PFT_PKT1_PPS3_DpT2_EPKcS5_PmS9_EN11_Save_errnoD2Ev(ptr noundef nonnull align 4 dereferenceable(4) %0) unnamed_addr #3 comdat align 2 {
  %2 = alloca ptr, align 8
  store ptr %0, ptr %2, align 8
  %3 = load ptr, ptr %2, align 8
  %4 = call ptr @__errno_location() #10
  %5 = load i32, ptr %4, align 4
  %6 = icmp eq i32 %5, 0
  br i1 %6, label %7, label %11

7:                                                ; preds = %1
  %8 = getelementptr inbounds nuw %struct._Save_errno.0, ptr %3, i32 0, i32 0
  %9 = load i32, ptr %8, align 4
  %10 = call ptr @__errno_location() #10
  store i32 %9, ptr %10, align 4
  br label %11

11:                                               ; preds = %7, %1
  ret void
}

; Function Attrs: mustprogress nounwind uwtable
define linkonce_odr void @_ZZN9__gnu_cxx6__stoaIddcJEEET0_PFT_PKT1_PPS3_DpT2_EPKcS5_PmS9_EN11_Save_errnoC2Ev(ptr noundef nonnull align 4 dereferenceable(4) %0) unnamed_addr #3 comdat align 2 {
  %2 = alloca ptr, align 8
  store ptr %0, ptr %2, align 8
  %3 = load ptr, ptr %2, align 8
  %4 = getelementptr inbounds nuw %struct._Save_errno.0, ptr %3, i32 0, i32 0
  %5 = call ptr @__errno_location() #10
  %6 = load i32, ptr %5, align 4
  store i32 %6, ptr %4, align 4
  %7 = call ptr @__errno_location() #10
  store i32 0, ptr %7, align 4
  ret void
}

; Function Attrs: mustprogress uwtable
define linkonce_odr noundef double @_ZN9__gnu_cxx6__stoaIddcJEEET0_PFT_PKT1_PPS3_DpT2_EPKcS5_PmS9_(ptr noundef %0, ptr noundef %1, ptr noundef %2, ptr noundef %3) #0 comdat personality ptr @__gxx_personality_v0 {
  %5 = alloca ptr, align 8
  %6 = alloca ptr, align 8
  %7 = alloca ptr, align 8
  %8 = alloca ptr, align 8
  %9 = alloca double, align 8
  %10 = alloca ptr, align 8
  %11 = alloca %struct._Save_errno.0, align 4
  %12 = alloca double, align 8
  %13 = alloca ptr, align 8
  %14 = alloca i32, align 4
  store ptr %0, ptr %5, align 8
  store ptr %1, ptr %6, align 8
  store ptr %2, ptr %7, align 8
  store ptr %3, ptr %8, align 8
  call void @_ZZN9__gnu_cxx6__stoaIddcJEEET0_PFT_PKT1_PPS3_DpT2_EPKcS5_PmS9_EN11_Save_errnoC2Ev(ptr noundef nonnull align 4 dereferenceable(4) %11)
  %15 = load ptr, ptr %5, align 8
  %16 = load ptr, ptr %7, align 8
  %17 = invoke noundef double %15(ptr noundef %16, ptr noundef %10)
          to label %18 unwind label %25

18:                                               ; preds = %4
  store double %17, ptr %12, align 8
  %19 = load ptr, ptr %10, align 8
  %20 = load ptr, ptr %7, align 8
  %21 = icmp eq ptr %19, %20
  br i1 %21, label %22, label %29

22:                                               ; preds = %18
  %23 = load ptr, ptr %6, align 8
  invoke void @_ZSt24__throw_invalid_argumentPKc(ptr noundef %23) #9
          to label %24 unwind label %25

24:                                               ; preds = %22
  unreachable

25:                                               ; preds = %39, %33, %22, %4
  %26 = landingpad { ptr, i32 }
          cleanup
  %27 = extractvalue { ptr, i32 } %26, 0
  store ptr %27, ptr %13, align 8
  %28 = extractvalue { ptr, i32 } %26, 1
  store i32 %28, ptr %14, align 4
  call void @_ZZN9__gnu_cxx6__stoaIddcJEEET0_PFT_PKT1_PPS3_DpT2_EPKcS5_PmS9_EN11_Save_errnoD2Ev(ptr noundef nonnull align 4 dereferenceable(4) %11) #7
  br label %57

29:                                               ; preds = %18
  %30 = call ptr @__errno_location() #10
  %31 = load i32, ptr %30, align 4
  %32 = icmp eq i32 %31, 34
  br i1 %32, label %37, label %33

33:                                               ; preds = %29
  %34 = load double, ptr %12, align 8
  %35 = invoke noundef zeroext i1 @_ZZN9__gnu_cxx6__stoaIddcJEEET0_PFT_PKT1_PPS3_DpT2_EPKcS5_PmS9_EN10_Range_chk6_S_chkEdSt17integral_constantIbLb0EE(double noundef %34)
          to label %36 unwind label %25

36:                                               ; preds = %33
  br label %37

37:                                               ; preds = %36, %29
  %38 = phi i1 [ true, %29 ], [ %35, %36 ]
  br i1 %38, label %39, label %42

39:                                               ; preds = %37
  %40 = load ptr, ptr %6, align 8
  invoke void @_ZSt20__throw_out_of_rangePKc(ptr noundef %40) #9
          to label %41 unwind label %25

41:                                               ; preds = %39
  unreachable

42:                                               ; preds = %37
  %43 = load double, ptr %12, align 8
  store double %43, ptr %9, align 8
  br label %44

44:                                               ; preds = %42
  br label %45

45:                                               ; preds = %44
  %46 = load ptr, ptr %8, align 8
  %47 = icmp ne ptr %46, null
  br i1 %47, label %48, label %55

48:                                               ; preds = %45
  %49 = load ptr, ptr %10, align 8
  %50 = load ptr, ptr %7, align 8
  %51 = ptrtoint ptr %49 to i64
  %52 = ptrtoint ptr %50 to i64
  %53 = sub i64 %51, %52
  %54 = load ptr, ptr %8, align 8
  store i64 %53, ptr %54, align 8
  br label %55

55:                                               ; preds = %48, %45
  %56 = load double, ptr %9, align 8
  call void @_ZZN9__gnu_cxx6__stoaIddcJEEET0_PFT_PKT1_PPS3_DpT2_EPKcS5_PmS9_EN11_Save_errnoD2Ev(ptr noundef nonnull align 4 dereferenceable(4) %11) #7
  ret double %56

57:                                               ; preds = %25
  %58 = load ptr, ptr %13, align 8
  %59 = load i32, ptr %14, align 4
  %60 = insertvalue { ptr, i32 } poison, ptr %58, 0
  %61 = insertvalue { ptr, i32 } %60, i32 %59, 1
  resume { ptr, i32 } %61
}

; Function Attrs: mustprogress uwtable
define linkonce_odr noundef double @_ZNSt7__cxx114stodERKNS_12basic_stringIcSt11char_traitsIcESaIcEEEPm(ptr noundef nonnull align 8 dereferenceable(32) %0, ptr noundef %1) #0 comdat {
  %3 = alloca ptr, align 8
  %4 = alloca ptr, align 8
  store ptr %0, ptr %3, align 8
  store ptr %1, ptr %4, align 8
  %5 = load ptr, ptr %3, align 8
  %6 = call noundef ptr @_ZNKSt7__cxx1112basic_stringIcSt11char_traitsIcESaIcEE5c_strEv(ptr noundef nonnull align 8 dereferenceable(32) %5) #7
  %7 = load ptr, ptr %4, align 8
  %8 = call noundef double @_ZN9__gnu_cxx6__stoaIddcJEEET0_PFT_PKT1_PPS3_DpT2_EPKcS5_PmS9_(ptr noundef @strtod, ptr noundef @.str.5, ptr noundef %6, ptr noundef %7)
  ret double %8
}

; Function Attrs: mustprogress uwtable
define noundef double @_ZN32pxrInternal_v0_24__pxrReserved__14TfGetenvDoubleERKNSt7__cxx1112basic_stringIcSt11char_traitsIcESaIcEEEd(ptr noundef nonnull align 8 dereferenceable(32) %0, double noundef %1) #0 personality ptr @__gxx_personality_v0 {
  %3 = alloca double, align 8
  %4 = alloca ptr, align 8
  %5 = alloca double, align 8
  %6 = alloca %"class.std::__cxx11::basic_string", align 8
  %7 = alloca i32, align 4
  %8 = alloca ptr, align 8
  %9 = alloca i32, align 4
  store ptr %0, ptr %4, align 8
  store double %1, ptr %5, align 8
  %10 = load ptr, ptr %4, align 8
  call void @_ZN32pxrInternal_v0_24__pxrReserved__10ArchGetEnvERKNSt7__cxx1112basic_stringIcSt11char_traitsIcESaIcEEE(ptr dead_on_unwind writable sret(%"class.std::__cxx11::basic_string") align 8 %6, ptr noundef nonnull align 8 dereferenceable(32) %10)
  %11 = call noundef zeroext i1 @_ZNKSt7__cxx1112basic_stringIcSt11char_traitsIcESaIcEE5emptyEv(ptr noundef nonnull align 8 dereferenceable(32) %6) #7
  br i1 %11, label %12, label %14

12:                                               ; preds = %2
  %13 = load double, ptr %5, align 8
  store double %13, ptr %3, align 8
  store i32 1, ptr %7, align 4
  br label %21

14:                                               ; preds = %2
  %15 = invoke noundef double @_ZNSt7__cxx114stodERKNS_12basic_stringIcSt11char_traitsIcESaIcEEEPm(ptr noundef nonnull align 8 dereferenceable(32) %6, ptr noundef null)
          to label %16 unwind label %17

16:                                               ; preds = %14
  store double %15, ptr %3, align 8
  store i32 1, ptr %7, align 4
  br label %21

17:                                               ; preds = %14
  %18 = landingpad { ptr, i32 }
          cleanup
  %19 = extractvalue { ptr, i32 } %18, 0
  store ptr %19, ptr %8, align 8
  %20 = extractvalue { ptr, i32 } %18, 1
  store i32 %20, ptr %9, align 4
  call void @_ZNSt7__cxx1112basic_stringIcSt11char_traitsIcESaIcEED1Ev(ptr noundef nonnull align 8 dereferenceable(32) %6) #7
  br label %23

21:                                               ; preds = %16, %12
  call void @_ZNSt7__cxx1112basic_stringIcSt11char_traitsIcESaIcEED1Ev(ptr noundef nonnull align 8 dereferenceable(32) %6) #7
  %22 = load double, ptr %3, align 8
  ret double %22

23:                                               ; preds = %17
  %24 = load ptr, ptr %8, align 8
  %25 = load i32, ptr %9, align 4
  %26 = insertvalue { ptr, i32 } poison, ptr %24, 0
  %27 = insertvalue { ptr, i32 } %26, i32 %25, 1
  resume { ptr, i32 } %27
}