; Function Attrs: mustprogress uwtable
define noundef double @_ZN32pxrInternal_v0_24__pxrReserved__14TfGetenvDoubleERKNSt7__cxx1112basic_stringIcSt11char_traitsIcESaIcEEEd(ptr noundef nonnull align 8 dereferenceable(32) %0, double noundef %1) local_unnamed_addr #0 personality ptr @__gxx_personality_v0 {
  %3 = alloca ptr, align 8
  %4 = alloca %"class.std::__cxx11::basic_string", align 8
  call void @_ZN32pxrInternal_v0_24__pxrReserved__10ArchGetEnvERKNSt7__cxx1112basic_stringIcSt11char_traitsIcESaIcEEE(ptr dead_on_unwind nonnull writable sret(%"class.std::__cxx11::basic_string") align 8 %4, ptr noundef nonnull align 8 dereferenceable(32) %0)
  %5 = call noundef zeroext i1 @_ZNKSt7__cxx1112basic_stringIcSt11char_traitsIcESaIcEE5emptyEv(ptr noundef nonnull align 8 dereferenceable(32) %4) #8
  br i1 %5, label %24, label %6

6:                                                ; preds = %2
  %7 = call noundef ptr @_ZNKSt7__cxx1112basic_stringIcSt11char_traitsIcESaIcEE5c_strEv(ptr noundef nonnull align 8 dereferenceable(32) %4) #8
  call void @llvm.lifetime.start.p0(i64 8, ptr nonnull %3)
  %8 = tail call ptr @__errno_location() #9
  %9 = load i32, ptr %8, align 4
  store i32 0, ptr %8, align 4
  %10 = call noundef double @strtod(ptr noundef %7, ptr noundef nonnull %3)
  %11 = load ptr, ptr %3, align 8
  %12 = icmp eq ptr %11, %7
  br i1 %12, label %13, label %20

13:                                               ; preds = %6
  invoke void @_ZSt24__throw_invalid_argumentPKc(ptr noundef nonnull @.str.5) #10
          to label %14 unwind label %15

14:                                               ; preds = %13
  unreachable

15:                                               ; preds = %.critedge.i.i, %13
  %16 = landingpad { ptr, i32 }
          cleanup
  %17 = load i32, ptr %8, align 4
  %18 = icmp eq i32 %17, 0
  br i1 %18, label %19, label %.body

19:                                               ; preds = %15
  store i32 %9, ptr %8, align 4
  br label %.body

20:                                               ; preds = %6
  %21 = load i32, ptr %8, align 4
  switch i32 %21, label %_ZNSt7__cxx114stodERKNS_12basic_stringIcSt11char_traitsIcESaIcEEEPm.exit [
    i32 34, label %.critedge.i.i
    i32 0, label %23
  ]

.critedge.i.i:                                    ; preds = %20
  invoke void @_ZSt20__throw_out_of_rangePKc(ptr noundef nonnull @.str.5) #10
          to label %22 unwind label %15

22:                                               ; preds = %.critedge.i.i
  unreachable

23:                                               ; preds = %20
  store i32 %9, ptr %8, align 4
  br label %_ZNSt7__cxx114stodERKNS_12basic_stringIcSt11char_traitsIcESaIcEEEPm.exit

_ZNSt7__cxx114stodERKNS_12basic_stringIcSt11char_traitsIcESaIcEEEPm.exit: ; preds = %20, %23
  call void @llvm.lifetime.end.p0(i64 8, ptr nonnull %3)
  br label %24

.body:                                            ; preds = %15, %19
  call void @_ZNSt7__cxx1112basic_stringIcSt11char_traitsIcESaIcEED1Ev(ptr noundef nonnull align 8 dereferenceable(32) %4) #8
  resume { ptr, i32 } %16

24:                                               ; preds = %_ZNSt7__cxx114stodERKNS_12basic_stringIcSt11char_traitsIcESaIcEEEPm.exit, %2
  %.0 = phi double [ %1, %2 ], [ %10, %_ZNSt7__cxx114stodERKNS_12basic_stringIcSt11char_traitsIcESaIcEEEPm.exit ]
  call void @_ZNSt7__cxx1112basic_stringIcSt11char_traitsIcESaIcEED1Ev(ptr noundef nonnull align 8 dereferenceable(32) %4) #8
  ret double %.0
}